0 error(s), 32 warning(s) unlisted in pass 1
                                                                 
                                                                 ;  processor 
6809
                                                                 ;  
build-command java Blend zoo.asm z2.asm
                                                                 ;  
build-command a09 -LZ2.LST z2.asm
                                                                 
                                                                 ;  ------- To 
Do -----
                                                                 ;  The CFLASH 
I/O routines
                                                                 
                                                                 ;  ------- 
Future Enhancements -----
                                                                 ;  When you 
enter a question, the game should strip off any trailing "?"
                                                                 ;  A show-zoo 
facility to show all nodes in the zoo would be handy
                                                                 
                                                                 ;  ------- 
Lessons learned for book -------
                                                                 
                                                                 ;  Talk about 
inheritance and polymorphism and such with FILE_IO and
                                                                 ;  
CFLASH_FILE_IO
                                                                 
                                                                 ;  Unit 
testing is so very important. Lots of functions seem to work
                                                                 ;  except I 
didn't make sure the current-position was updated and 
                                                                 ;  I didn't 
make sure registers were preserved and un-needed returns
                                                                 ;  were 
correct (that I later came to use). Develop lots of little
                                                                 ;  
scaffolding code that won't get used in production, but will get used
                                                                 ;  along the 
way. DON'T DELETE IT ... just comment it out or move it. You'll
                                                                 ;  test again 
later.
                                                                 
                                                                 ;  Debug 
facilities like register-dump and memory view is vital. Develop
                                                                 ;  those for 
the reader.
                                                                 
                                                                 ;  It would 
be nice if there were a tool-facility to manage stack variables
                                                                 ;  to keep 
track of things like "4,S" automatically.
                                                                 
                                                                 ;  In making 
functions generic, you'll be stacking and unstacking a lot of things
                                                                 ;  needlessly 
to ensure nothing gets changed. The alternative is to force the
                                                                 ;  caller to 
preserve data across calls. This is equally viable and preferrable
                                                                 ;  in 
speed-critical situations.
                                                                 
                                                                 ;  Good debug 
techniques: increment screen memory in and out of a function so you can
                                                                 ;  see the 
call tree. Also increment after steps in a suspect function. Or just uncomment 

                                                                 ;  lines of a 
function one by one ... especially the calls.
                                                                 ;  Substitue 
indirect calls temporarily with absolutes.
                                                                 ;  Stress the 
importance of unit-testing a method or set of methods completely. Throw-away
                                                                 ;  debug code 
... but just comment it out! You'll find later that you suspect a function
                                                                 ;  is failing 
even though you thought you tested it fully. Stick in the increment-while-true
                                                                 ;  to see if 
you are getting to a spot. Store values to the screen memory for inspection.
                                                                 
                                                                 ;  With all 
the indexed addressing, the LEA is most needed. It's power becomes clear.
                                                                 ;  Talk about 
this instruction when you talk about indexed addressing.
                                                                 
                                                                 ;  The LEA is 
used to add and subtract from the index registers even though it
                                                                 ;  doesn't 
look like a standard add/subtract. It takes longer too ... longer
                                                                 ;  
instruction.
                                                                 ;  Comment 
that this is a LEA even though it doesn't look like one!
                                                                 
                                                                 ;  When you 
first start working on a platform you'll spend a lot of time creating
                                                                 ;  librarys 
of things (strings, screen, etc) that will pay off in the future.
                                                                 ;  Don't 
worry if you find yourself straying from the course of your game ... remember
                                                                 ;  you are 
writing lots of future games too.
                                                                 
                                                                 ;  Took a 
while to code this game because I created a lot of library
                                                                 ;  functions 
(strings, screen, etc) that will pay off in my next
                                                                 ;  
application (show NavalWar, for instance)
                                                                 
                                                                 ;  
Observations:
                                                                 ;  Not a lot 
of local variables to work with in assembler. You have to either
                                                                 ;  frame-up 
the stack or create lots of these globals.
                                                                 
                                                                 ;  Talk about 
abstraction. We hid the screen-cursor behind functions. Advantages?
                                                                 ;  
Disadvantages? We didn't hide the CurrentSize and CurrentPosition. They are 
more
                                                                 ;  concrete 
... talk about this.
                                                                 
                                                                 ;  Would be 
nice if the tool could figure out data context so we could drop '#' and
                                                                 ;  use '&' 
when we need to.
                                                                 
                                                                 ; <EditorTab 
name="ZOO_NODE">
                                                                 ;  
StructureDefinition ZOO_NODE {
                                                                 ;    2 
DataOffset
                                                                 ;    2 
YesNextNode
                                                                 ;    2 
NoNextNode
                                                                 ;    256 Text
                                                                 ;  }
                                                                 ; 
</EditorTab>
                                                                 
                                                                 ; <EditorTab 
name="FILE_IO">
                                                                 ;  
StructureDefinition FILE_IO {
                                                                 ;    2 
FnReadBytes  ; X=this, Y=number, U=buffer
                                                                 ;    2 
FnWriteBytes ; X=this, Y=number, U=buffer
                                                                 ;    2 
FnFlush      ; X=this
                                                                 ;    2 FnSeek 
      ; X=this, Y=position
                                                                 ;    2 
FnGetSize    ; X=this, Y<=size
                                                                 ;  --------
                                                                 ;    2 
CurrentPosition
                                                                 ;    2 
CurrentSize
                                                                 ;  }
                                                                 
                                                                 ;  
StructureDefinition CFLASH_FILE_IO : FILE_IO {
                                                                 ;  Inheriting 
all of FILE_IO's members first
                                                                 ;    1   
Drive
                                                                 ;    2   
StartSector
                                                                 ;    2   
CurrentOffsetInSector
                                                                 ;    2   
CurrentCachedSector
                                                                 ;    1   
Dirty
                                                                 ;    512 
SectorCache
                                                                 ;  }
                                                                 ; 
</EditorTab>
                                                                 
                                                                 ; <EditorTab 
name="RAM">
                                                                 
                                                                 ;  BASIC 
scratch memory takes from $0000 to $0400
                                                                 ;  Screen 
sits at $0400 - $04FF
                                                                 ;  Stack runs 
from $04FF - $1000
                                                                 ;  Program 
lives from $1000 to $1FFF
                                                                 ;  Variable 
memory lives from $2000 to $2FFF
                                                                 ;  RAMDRIVE 
eats the remainder of RAM from $3000 on
                                                                 
                                       org      $2000            ; OLine=115
                      NODE_BUF_LAST    rmb      262              ;  
StructureUsage NODE_BUF_LAST     is ZOO_NODE
                      NODE_BUF_CURRENT rmb      262              ;  
StructureUsage NODE_BUF_CURRENT  is ZOO_NODE
                      NODE_BUF_NEW_1   rmb      262              ;  
StructureUsage NODE_BUF_NEW_1    is ZOO_NODE
                      NODE_BUF_NEW_2   rmb      262              ;  
StructureUsage NODE_BUF_NEW_2    is ZOO_NODE
                      ZOO_IO           rmb      534              ;  
StructureUsage CFLASH_FILE_IO    is CFLASH_FILE_IO
                      INPUT_BUFFER     rmb      16               ; OLine=121
                      SCREEN_CURSOR    rmb      2                ; OLine=122
                      TEMP_A           rmb      2                ; OLine=123
                                                                 
                                       org      $3000            ; OLine=125
                      RAM_DRIVE        rmb      $1000            ; OLine=126  
At least 4K left in a 16K system
                                                                 
                                                                 
                                                                 ; 
</EditorTab>
                                                                 
                                                                 ; <EditorTab 
name="START">
                                                                 
                                                                 ; org $C000
                                       org      $1000            ; OLine=134
                                                                 
 1000 434F434F4F53                     fcc      "COCOOS"         ; OLine=136  
Preamble checked by the RAMLOADER. Execution begins at $1006.
                                                                 
 1006 10CE1000                         LDS      #$1000           ; OLine=138
                                                                 
 100A C660                             LDB      #96              ; OLine=140
 100C 170426                           LBSR     CLEAR_SCREEN     ; OLine=141
                                                                 
                                                                 ; X = #ZOO_IO
                                                                 ; 
INIT_RAM_FILE()
                                                                 
                                                                 ;  The 
RAMLOADER leaves the last-loaded-sector in Y
 100F 3121                             LEAY     1,Y              ; OLine=147  
Assume the data area is right after the program
 1011 8E2418                           LDX      #ZOO_IO          ; OLine=148
 1014 17000F                           LBSR     INIT_CFLASH_FILE ; OLine=149
                                                                 
 1017 8E16E9                           LDX      #MSG_WELCOME     ; OLine=151
 101A 170439                           LBSR     PRINT_MESSAGE    ; OLine=152
                                                                 
                      FLOW_A_1_OUTPUT_BEGIN:                           
                                                                 ;   LBRA  
FLOW_A_1_1_INPUT
                                                                 ;  
FLOW_A_1_1_INPUT:
                                                                 ;  polarity 0
                                                                 ;   LBRA 
FLOW_A_1_OUTPUT_TRUE
                                                                 ;  
FLOW_A_1_OUTPUT_TRUE:
 101D 8E2418                           LDX      #ZOO_IO          ; OLine=155
 1020 17018F                           LBSR     PLAY_ZOO         ; OLine=156
 1023 16FFF7                           LBRA     FLOW_A_1_OUTPUT_BEGIN 
*** warning 1: Long branch within short branch range could be optimized
                                                                 ;  
FLOW_A_1_OUTPUT_FALSE:
                                                                 ;  
FLOW_A_1_OUTPUT_END:
                                                                 
                                                                 ; 
</EditorTab>
                                                                 
                                                                 ; <EditorTab 
name="CFLASH FILE I/O">
                                                                 ; 
=======================================================================
                                                                 ;  CFLASH 
FILE IO FUNCTIONS
                                                                 ; 
=======================================================================
                                                                 
                      INIT_CFLASH_FILE:                           ;  
--SubroutineContextBegins--
                                                                 ;  
StructureUsage X is CFLASH_FILE_IO
                                                                 
 1026 10AF0F                           STY      15,X             
                                                                 
 1029 C600                             LDB      #0               ; OLine=171
 102B E70E                             STB      14,X             
 102D E78815                           STB      21,X             
                                                                 
 1030 CC10BA                           LDD      #CFLASH_READ_BYTES ; OLine=175
 1033 ED84                             STD      0,X              
 1035 CC10BB                           LDD      #CFLASH_WRITE_BYTES ; 
OLine=177
 1038 ED02                             STD      2,X              
 103A CC1054                           LDD      #CFLASH_FLUSH    ; OLine=179
 103D ED04                             STD      4,X              
 103F CC10BC                           LDD      #CFLASH_SEEK     ; OLine=181
 1042 ED06                             STD      6,X              
 1044 CC10BD                           LDD      #CFLASH_GET_SIZE ; OLine=183
 1047 ED08                             STD      8,X              
 1049 CC0000                           LDD      #0               ; OLine=185
 104C ED0A                             STD      10,X             
                                                                 
                                                                 ;  Set the 
size to max and then use the read-bytes to find
                                                                 ;  3 
consecutive 0's. Then end point is the middle 0.
                                                                 ;  Back off 
the size (if found 3)  
                                                                 
 104E FCFFFF                           LDD      $FFFF            ; OLine=192
 1051 ED0C                             STD      12,X             
                                                                 
 1053 39                               RTS                       ;  
--SubroutineContextEnds--
                                                                 
                      ROM_OS_READ_SECTOR equ      $C2F8            ; OLine=197
                      ROM_OS_WRITE_SECTOR equ      $C322            ; 
OLine=198
                                                                 
                      CFLASH_FLUSH:                              ;  
--SubroutineContextBegins--
                                                                 
                                                                 ;  
StructureUsage X is CFLASH_FILE_IO
                                                                 
 1054 E68815                           LDB      21,X             
                                                                 ;  polarity 1
                                                                 ;   LBRA  
FLOW_A_2_1_INPUT
                                                                 ;  
FLOW_A_2_1_INPUT:
                                                                 ;  polarity 0
 1057 C100                             CMPB     #0               
                                                                 ;   LBEQ 
FLOW_A_2_OUTPUT_TRUE
                                                                 ;   LBRA 
FLOW_A_2_OUTPUT_FALSE
                                                                 ;  
FLOW_A_2_OUTPUT_FALSE:
                                                                 ;   LBRA  
FLOW_A_2_OUTPUT_END
                                                                 ;  
FLOW_A_2_OUTPUT_TRUE:
                                                                 ;       
return CLEAN-OrphanReturn- 
                                                                 ;  
FLOW_A_2_OUTPUT_END:
                                                                 
 1059 3402                             PSHS     A                ; OLine=209
 105B 3410                             PSHS     X                ; OLine=210
 105D 3420                             PSHS     Y                ; OLine=211
 105F 3440                             PSHS     U                ; OLine=212
                                                                 
 1061 CC0000                           LDD      #0               ; OLine=214
 1064 E78815                           STB      21,X             
 1067 ED8811                           STD      17,X             
 106A 10AF8813                         STY      19,X             
                                                                 
 106E E60E                             LDB      14,X             
                                                                 
 1070 1F20                             TFR      Y,D              ; OLine=221
 1072 E30F                             ADDD     15,X             
 1074 1F02                             TFR      D,Y              ; OLine=223
 1076 338816                           LEAU     22,X             
 1079 8E0000                           LDX      #0               ; OLine=225
                                                                 
                                                                 ;  B=Drive, 
X=SectorMSW, Y=SectorLSW, U=Buffer (return status in B)  
 107C BDC322                           JSR      ROM_OS_WRITE_SECTOR ; 
OLine=228
                                                                 
 107F 3540                             PULS     U                ; OLine=230
 1081 3520                             PULS     Y                ; OLine=231
 1083 3510                             PULS     X                ; OLine=232
 1085 3502                             PULS     A                ; OLine=233
                                                                 
 1087 39                               RTS                       ;  
--SubroutineContextEnds--
                                                                 
                      CACHE_SECTOR:                              ;  
--SubroutineContextBegins--
                                                                 
 1088 17FFC9                           LBSR     CFLASH_FLUSH     ; OLine=239  
Make sure the cache is written out (if dirty)
*** warning 1: Long branch within short branch range could be optimized
                                                                 
                                                                 ;  
StructureUsage X is CFLASH_FILE_IO
                                                                 
 108B 3402                             PSHS     A                ; OLine=243
 108D 3410                             PSHS     X                ; OLine=244
 108F 3420                             PSHS     Y                ; OLine=245
 1091 3440                             PSHS     U                ; OLine=246
                                                                 
 1093 CC0000                           LDD      #0               ; OLine=248
 1096 E78815                           STB      21,X             
 1099 ED8811                           STD      17,X             
 109C 10AF8813                         STY      19,X             
                                                                 
 10A0 E60E                             LDB      14,X             
                                                                 
 10A2 1F20                             TFR      Y,D              ; OLine=255
 10A4 E30F                             ADDD     15,X             
 10A6 1F02                             TFR      D,Y              ; OLine=257
 10A8 338816                           LEAU     22,X             
 10AB 8E0000                           LDX      #0               ; OLine=259
                                                                 
                                                                 ;  B=Drive, 
X=SectorMSW, Y=SectorLSW, U=Buffer (return status in B)  
 10AE BDC2F8                           JSR      ROM_OS_READ_SECTOR ; OLine=262
                                                                 
 10B1 3540                             PULS     U                ; OLine=264
 10B3 3520                             PULS     Y                ; OLine=265
 10B5 3510                             PULS     X                ; OLine=266
 10B7 3502                             PULS     A                ; OLine=267
                                                                 
 10B9 39                               RTS                       ;  
--SubroutineContextEnds--
                                                                 
                      CFLASH_READ_BYTES:                           ;  
--SubroutineContextBegins--
                                                                 ;  
StructureUsage X is CFLASH_FILE_IO
 10BA 39                               RTS                       ;  
--SubroutineContextEnds--
                                                                 
                      CFLASH_WRITE_BYTES:                           ;  
--SubroutineContextBegins--
                                                                 ;  
StructureUsage X is CFLASH_FILE_IO
 10BB 39                               RTS                       ;  
--SubroutineContextEnds--
                                                                 
                      CFLASH_SEEK:                               ;  
--SubroutineContextBegins--
                                                                 ;  
StructureUsage X is CFLASH_FILE_IO
 10BC 39                               RTS                       ;  
--SubroutineContextEnds--
                                                                 
                      CFLASH_GET_SIZE:                           ;  
--SubroutineContextBegins--
                                                                 ;  
StructureUsage X is CFLASH_FILE_IO 
 10BD 10AE0C                           LDY      12,X             
 10C0 39                               RTS                       ;  
--SubroutineContextEnds--
                                                                 
                                                                 ; 
</EditorTab>
                                                                 
                                                                 ; <EditorTab 
name="RAM FILE I/O">
                                                                 ; 
=======================================================================
                                                                 ;  RAM FILE 
IO FUNCTIONS
                                                                 ; 
=======================================================================
                                                                 
                      INIT_RAM_FILE:                             ;  
--SubroutineContextBegins--
                                                                 ;  
StructureUsage X is FILE_IO
                                                                 
 10C1 3406                             PSHS     D                ; OLine=298
                                                                 
 10C3 3410                             PSHS     X                ; OLine=300
 10C5 3420                             PSHS     Y                ; OLine=301
 10C7 3440                             PSHS     U                ; OLine=302
                                                                 ;  Copy 
RAM_DRIVE from ROM to RAM
 10C9 8E17D9                           LDX      #RAM_DRIVE_ROM   ; OLine=304
 10CC 108E3000                         LDY      #RAM_DRIVE       ; OLine=305
 10D0 CE0033                           LDU      #ZOO_END-RAM_DRIVE_ROM ; 
OLine=306
                                                                 ;  
FLOW_A_3_OUTPUT_BEGIN:
                      FLOW_A_3_OUTPUT_TRUE:                           
 10D3 A680                             LDA      ,X+              ; OLine=308
 10D5 A7A0                             STA      ,Y+              ; OLine=309
 10D7 335F                             LEAU     -1,U             ; OLine=310
                                                                 ;   LBRA  
FLOW_A_3_1_INPUT
                                                                 ;  
FLOW_A_3_1_INPUT:
                                                                 ;  polarity 0
 10D9 11830000                         CMPU     #0               
 10DD 1026FFF2                         LBNE     FLOW_A_3_OUTPUT_TRUE 
*** warning 1: Long branch within short branch range could be optimized
                                                                 ;   LBRA 
FLOW_A_3_OUTPUT_FALSE
                                                                 ;  
FLOW_A_3_OUTPUT_FALSE:
                                                                 ;  
FLOW_A_3_OUTPUT_END:
 10E1 3540                             PULS     U                ; OLine=312
 10E3 3520                             PULS     Y                ; OLine=313
 10E5 3510                             PULS     X                ; OLine=314
                                                                 
 10E7 CC110D                           LDD      #RAM_READ_BYTES  ; OLine=316
 10EA ED84                             STD      0,X              
 10EC CC1151                           LDD      #RAM_WRITE_BYTES ; OLine=318
 10EF ED02                             STD      2,X              
 10F1 CC119C                           LDD      #RAM_FLUSH       ; OLine=320
 10F4 ED04                             STD      4,X              
 10F6 CC119D                           LDD      #RAM_SEEK        ; OLine=322
 10F9 ED06                             STD      6,X              
 10FB CC11AE                           LDD      #RAM_GET_SIZE    ; OLine=324
 10FE ED08                             STD      8,X              
 1100 CC0000                           LDD      #0               ; OLine=326
 1103 ED0A                             STD      10,X             
 1105 CC0033                           LDD      #ZOO_END-RAM_DRIVE_ROM ; 
OLine=328
 1108 ED0C                             STD      12,X             
 110A 3506                             PULS     D                ; OLine=330
 110C 39                               RTS                       ;  
--SubroutineContextEnds--
                                                                 
                      RAM_READ_BYTES:                            ;  
--SubroutineContextBegins--
                                                                 ;  
StructureUsage X is FILE_IO
                                                                 
 110D 3406                             PSHS     D                ; OLine=336
 110F 3420                             PSHS     Y                ; OLine=337
 1111 3440                             PSHS     U                ; OLine=338
                                                                 
 1113 3410                             PSHS     X                ; OLine=340
                                                                 
                                                                 ;  Limit Y to 
what we have
 1115 EC0C                             LDD      12,X             
 1117 A30A                             SUBD     10,X             
 1119 ED64                             STD      4,S              ; OLine=345  
?? Return value?
 111B 1F20                             TFR      Y,D              ; OLine=346
                                                                 ;  polarity 1
                                                                 ;   LBRA  
FLOW_A_4_1_INPUT
                                                                 ;  
FLOW_A_4_1_INPUT:
                                                                 ;  polarity 0
 111D 10A364                           CMPD     4,S              
 1120 102E0003                         LBGT     FLOW_A_4_OUTPUT_TRUE 
                                                                 ;   LBRA 
FLOW_A_4_OUTPUT_FALSE
                                                                 ;  
FLOW_A_4_OUTPUT_FALSE:
 1124 160002                           LBRA     FLOW_A_4_OUTPUT_END 
                      FLOW_A_4_OUTPUT_TRUE:                           
 1127 EC64                             LDD      4,S              ; OLine=348
                      FLOW_A_4_OUTPUT_END:                           
 1129 ED64                             STD      4,S              ; OLine=350
 112B 1F02                             TFR      D,Y              ; OLine=351
                                                                 
                                                                 ;  Get the 
absolute RAM pointer to X
 112D EC0A                             LDD      10,X             
 112F C33000                           ADDD     #RAM_DRIVE       ; OLine=355
 1132 1F01                             TFR      D,X              ; OLine=356
                                                                 
                                                                 ;  Do the 
copy
                                                                 ;  
FLOW_A_5_OUTPUT_BEGIN:
                      FLOW_A_5_OUTPUT_TRUE:                           
 1134 A680                             LDA      ,X+              ; OLine=360
 1136 A7C0                             STA      ,U+              ; OLine=361
 1138 313F                             LEAY     -1,Y             ; OLine=362
                                                                 ;   LBRA  
FLOW_A_5_1_INPUT
                                                                 ;  
FLOW_A_5_1_INPUT:
                                                                 ;  polarity 0
 113A 108C0000                         CMPY     #0               
 113E 1026FFF2                         LBNE     FLOW_A_5_OUTPUT_TRUE 
*** warning 1: Long branch within short branch range could be optimized
                                                                 ;   LBRA 
FLOW_A_5_OUTPUT_FALSE
                                                                 ;  
FLOW_A_5_OUTPUT_FALSE:
                                                                 ;  
FLOW_A_5_OUTPUT_END:
                                                                 
 1142 EC64                             LDD      4,S              ; OLine=365
                                                                 
 1144 3510                             PULS     X                ; OLine=367
 1146 E30A                             ADDD     10,X             
 1148 ED0A                             STD      10,X             
                                                                 
 114A 3540                             PULS     U                ; OLine=371
 114C 3520                             PULS     Y                ; OLine=372
 114E 3506                             PULS     D                ; OLine=373
                                                                 
 1150 39                               RTS                       ;  
--SubroutineContextEnds--
                                                                 
                      RAM_WRITE_BYTES:                           ;  
--SubroutineContextBegins--
                                                                 ;  
StructureUsage X is FILE_IO
                                                                 
 1151 3406                             PSHS     D                ; OLine=380
 1153 3420                             PSHS     Y                ; OLine=381
 1155 3440                             PSHS     U                ; OLine=382
 1157 3410                             PSHS     X                ; OLine=383
                                                                 
                                                                 ;  Get the 
absolute RAM pointer to X
 1159 EC0A                             LDD      10,X             
 115B C33000                           ADDD     #RAM_DRIVE       ; OLine=387
 115E 1F01                             TFR      D,X              ; OLine=388
                                                                 
 1160 CC0000                           LDD      #0               ; OLine=390
 1163 ED62                             STD      2,S              ; OLine=391
                                                                 
                                                                 ;  Do the 
copy
                                                                 ;  
FLOW_A_6_OUTPUT_BEGIN:
                      FLOW_A_6_OUTPUT_TRUE:                           
 1165 A6C0                             LDA      ,U+              ; OLine=395
 1167 A780                             STA      ,X+              ; OLine=396
                                                                 ;  polarity 1
                                                                 ;   LBRA  
FLOW_A_7_1_INPUT
                                                                 ;  
FLOW_A_7_1_INPUT:
                                                                 ;  polarity 0
 1169 A11F                             CMPA     -1,X             
 116B 10260012                         LBNE     FLOW_A_6_OUTPUT_END ; 
CLEAN-JumpToJump- FLOW_A_7_OUTPUT_TRUE
                                                                 ;   LBRA 
FLOW_A_7_OUTPUT_FALSE
                                                                 ;  
FLOW_A_7_OUTPUT_FALSE:
 116F 160003                           LBRA     FLOW_A_7_OUTPUT_END 
                                                                 ;  
FLOW_A_7_OUTPUT_TRUE:
 1172 16000C                           LBRA     FLOW_A_6_OUTPUT_END ; 
OLine=398    
                      FLOW_A_7_OUTPUT_END:                           
 1175 6C62                             INC      2,S              ; OLine=400
 1177 313F                             LEAY     -1,Y             ; OLine=401
                                                                 ;   LBRA  
FLOW_A_6_1_INPUT
                                                                 ;  
FLOW_A_6_1_INPUT:
                                                                 ;  polarity 0
 1179 108C0000                         CMPY     #0               
 117D 1026FFE4                         LBNE     FLOW_A_6_OUTPUT_TRUE 
*** warning 1: Long branch within short branch range could be optimized
                                                                 ;   LBRA 
FLOW_A_6_OUTPUT_FALSE
                                                                 ;  
FLOW_A_6_OUTPUT_FALSE:
                      FLOW_A_6_OUTPUT_END:                           
                                                                 
 1181 3510                             PULS     X                ; OLine=404
 1183 EC62                             LDD      2,S              ; OLine=405
 1185 E30A                             ADDD     10,X             
 1187 ED0A                             STD      10,X             
                                                                 ;  polarity 1
                                                                 ;   LBRA  
FLOW_A_8_1_INPUT
                                                                 ;  
FLOW_A_8_1_INPUT:
                                                                 ;  polarity 0
 1189 10A30C                           CMPD     12,X             
 118C 102E0003                         LBGT     FLOW_A_8_OUTPUT_TRUE 
                                                                 ;   LBRA 
FLOW_A_8_OUTPUT_FALSE
                                                                 ;  
FLOW_A_8_OUTPUT_FALSE:
 1190 160002                           LBRA     FLOW_A_8_OUTPUT_END 
                      FLOW_A_8_OUTPUT_TRUE:                           
 1193 ED0C                             STD      12,X             
                      FLOW_A_8_OUTPUT_END:                           
 1195 3540                             PULS     U                ; OLine=411
 1197 3520                             PULS     Y                ; OLine=412
 1199 3506                             PULS     D                ; OLine=413
                                                                 
 119B 39                               RTS                       ;  
--SubroutineContextEnds--
                                                                 
                      RAM_FLUSH:                                 ;  
--SubroutineContextBegins--
                                                                 ;  Nothing to 
do for RAM files  
 119C 39                               RTS                       ;  
--SubroutineContextEnds--
                                                                 
                      RAM_SEEK:                                  ;  
--SubroutineContextBegins--
                                                                 ;  
StructureUsage X is FILE_IO
                                                                 ;  polarity 1
                                                                 ;   LBRA  
FLOW_A_9_1_INPUT
                                                                 ;  
FLOW_A_9_1_INPUT:
                                                                 ;  polarity 0
 119D 10AC0C                           CMPY     12,X             
 11A0 102E0003                         LBGT     FLOW_A_9_OUTPUT_TRUE 
                                                                 ;   LBRA 
FLOW_A_9_OUTPUT_FALSE
                                                                 ;  
FLOW_A_9_OUTPUT_FALSE:
 11A4 160003                           LBRA     FLOW_A_9_OUTPUT_END 
                      FLOW_A_9_OUTPUT_TRUE:                           
 11A7 10AE0C                           LDY      12,X             
                      FLOW_A_9_OUTPUT_END:                           
 11AA 10AF0A                           STY      10,X             
 11AD 39                               RTS                       ;  
--SubroutineContextEnds--
                                                                 
                      RAM_GET_SIZE:                              ;  
--SubroutineContextBegins--
                                                                 ;  
StructureUsage X is FILE_IO
 11AE 10AE0C                           LDY      12,X             
 11B1 39                               RTS                       ;  
--SubroutineContextEnds--
                                                                 ; 
</EditorTab>
                                                                 
                                                                 ; <EditorTab 
name="PlayZoo()">
                                                                 
                      PLAY_ZOO:                                  ;  
--SubroutineContextBegins--
                                                                 
 11B2 108E0008                         LDY      #8               ; OLine=439  
First ZOO node (after preamble)  
                                                                 
 11B6 3410                             PSHS     X                ; OLine=441
 11B8 8E1704                           LDX      #MSG_INSTRUCTIONS ; OLine=442
 11BB 170298                           LBSR     PRINT_MESSAGE    ; OLine=443
 11BE 3510                             PULS     X                ; OLine=444
                                                                 
                      FLOW_A_10_OUTPUT_BEGIN:                           
                                                                 ;   LBRA  
FLOW_A_10_1_INPUT
                                                                 ;  
FLOW_A_10_1_INPUT:
                                                                 ;  polarity 0
                                                                 ;   LBRA 
FLOW_A_10_OUTPUT_TRUE
                                                                 ;  
FLOW_A_10_OUTPUT_TRUE:
                                                                 
 11C0 17021B                           LBSR     LOAD_ZOO_NODE    ; OLine=448
                                                                 
 11C3 CE2106                           LDU      #NODE_BUF_CURRENT ; OLine=450
                                                                 ;  
StructureUsage U is ZOO_NODE
 11C6 EC42                             LDD      2,U              
                                                                 
                                                                 ;  polarity 1
                                                                 ;   LBRA  
FLOW_A_11_1_INPUT
                                                                 ;  
FLOW_A_11_1_INPUT:
                                                                 ;  polarity 0
 11C8 10830000                         CMPD     #0               
 11CC 10270048                         LBEQ     FLOW_A_11_OUTPUT_TRUE 
                                                                 ;   LBRA 
FLOW_A_11_OUTPUT_FALSE
                                                                 ;  
FLOW_A_11_OUTPUT_FALSE:
                                       //       Question node    ; OLine=490
 11D0 3410                             PSHS     X                ; OLine=491
                                                                 
 11D2 3046                             LEAX     6,U              
 11D4 17027F                           LBSR     PRINT_MESSAGE    ; OLine=494
                                                                 
 11D7 8E16D0                           LDX      #MSG_QUESTION_MARK ; OLine=496
 11DA 170279                           LBSR     PRINT_MESSAGE    ; OLine=497
                                                                 
 11DD 8E16BE                           LDX      #MSG_YN          ; OLine=499
 11E0 170273                           LBSR     PRINT_MESSAGE    ; OLine=500
                                                                 
 11E3 3440                             PSHS     U                ; OLine=502
 11E5 8E262E                           LDX      #INPUT_BUFFER    ; OLine=503
 11E8 CE0004                           LDU      #4               ; OLine=504
 11EB 17033D                           LBSR     INPUT_STRING     ; OLine=505
 11EE 1702B9                           LBSR     LINE_FEED        ; OLine=506
 11F1 3540                             PULS     U                ; OLine=507
                                                                 
 11F3 A684                             LDA      ,X               ; OLine=509
                                                                 ;  polarity 1
                                                                 ;   LBRA  
FLOW_A_14_1_INPUT
                                                                 ;  
FLOW_A_14_1_INPUT:
                                                                 ;  polarity 0
 11F5 8159                             CMPA     #'Y'             
 11F7 10270012                         LBEQ     FLOW_A_14_OUTPUT_TRUE 
                                                                 ;   LBRA 
FLOW_A_14_OUTPUT_FALSE
                                                                 ;  
FLOW_A_14_OUTPUT_FALSE:
                                                                 ;  polarity 1
                                                                 ;   LBRA  
FLOW_A_15_1_INPUT
                                                                 ;  
FLOW_A_15_1_INPUT:
                                                                 ;  polarity 0
 11FB 814E                             CMPA     #'N'             
 11FD 10270003                         LBEQ     FLOW_A_15_OUTPUT_TRUE 
                                                                 ;   LBRA 
FLOW_A_15_OUTPUT_FALSE
                                                                 ;  
FLOW_A_15_OUTPUT_FALSE:
 1201 16000F                           LBRA     FLOW_A_14_OUTPUT_END ; 
CLEAN-JumpToJump- FLOW_A_15_OUTPUT_END
                      FLOW_A_15_OUTPUT_TRUE:                           
 1204 170205                           LBSR     COPY_CURRENT_TO_LAST ; 
OLine=514
 1207 10AE44                           LDY      4,U              
                                                                 ;  
FLOW_A_15_OUTPUT_END:
 120A 160006                           LBRA     FLOW_A_14_OUTPUT_END 
                      FLOW_A_14_OUTPUT_TRUE:                           
 120D 1701FC                           LBSR     COPY_CURRENT_TO_LAST ; 
OLine=511
 1210 10AE42                           LDY      2,U              
                      FLOW_A_14_OUTPUT_END:                           
                                                                 
 1213 3510                             PULS     X                ; OLine=518
 1215 16FFA8                           LBRA     FLOW_A_10_OUTPUT_BEGIN ; 
CLEAN-JumpToJump- FLOW_A_11_OUTPUT_END
*** warning 1: Long branch within short branch range could be optimized
                      FLOW_A_11_OUTPUT_TRUE:                           
                                       //       Animal node      ; OLine=455
 1218 3410                             PSHS     X                ; OLine=456
                                                                 
 121A 8E16D3                           LDX      #MSG_ISIT        ; OLine=458
 121D 170236                           LBSR     PRINT_MESSAGE    ; OLine=459
 1220 3046                             LEAX     6,U              
 1222 170231                           LBSR     PRINT_MESSAGE    ; OLine=461
 1225 8E16D0                           LDX      #MSG_QUESTION_MARK ; OLine=462
 1228 17022B                           LBSR     PRINT_MESSAGE    ; OLine=463
                                                                 
 122B 8E16BE                           LDX      #MSG_YN          ; OLine=465
 122E 170225                           LBSR     PRINT_MESSAGE    ; OLine=466
                                                                 
 1231 3440                             PSHS     U                ; OLine=468
 1233 8E262E                           LDX      #INPUT_BUFFER    ; OLine=469
 1236 CE0003                           LDU      #3               ; OLine=470
 1239 1702EF                           LBSR     INPUT_STRING     ; OLine=471
 123C 17026B                           LBSR     LINE_FEED        ; OLine=472
 123F 3540                             PULS     U                ; OLine=473
                                                                 
 1241 A684                             LDA      ,X               ; OLine=475
                                                                 ;  polarity 1
                                                                 ;   LBRA  
FLOW_A_12_1_INPUT
                                                                 ;  
FLOW_A_12_1_INPUT:
                                                                 ;  polarity 0
 1243 8159                             CMPA     #'Y'             
 1245 10270012                         LBEQ     FLOW_A_12_OUTPUT_TRUE 
                                                                 ;   LBRA 
FLOW_A_12_OUTPUT_FALSE
                                                                 ;  
FLOW_A_12_OUTPUT_FALSE:
                                                                 ;  polarity 1
                                                                 ;   LBRA  
FLOW_A_13_1_INPUT
                                                                 ;  
FLOW_A_13_1_INPUT:
                                                                 ;  polarity 0
 1249 814E                             CMPA     #'N'             
 124B 10270003                         LBEQ     FLOW_A_13_OUTPUT_TRUE 
                                                                 ;   LBRA 
FLOW_A_13_OUTPUT_FALSE
                                                                 ;  
FLOW_A_13_OUTPUT_FALSE:
 124F 160012                           LBRA     FLOW_A_12_OUTPUT_END ; 
CLEAN-JumpToJump- FLOW_A_13_OUTPUT_END
                      FLOW_A_13_OUTPUT_TRUE:                           
 1252 3510                             PULS     X                ; OLine=482
 1254 1700A1                           LBSR     ADD_TO_ZOO       ; OLine=483
 1257 39                               RTS                       ; OLine=484
                                                                 ;  
FLOW_A_13_OUTPUT_END:
 1258 160009                           LBRA     FLOW_A_12_OUTPUT_END 
                      FLOW_A_12_OUTPUT_TRUE:                           
 125B 8E16DC                           LDX      #MSG_I_GOT_IT    ; OLine=477
 125E 1701F5                           LBSR     PRINT_MESSAGE    ; OLine=478
 1261 3510                             PULS     X                ; OLine=479
 1263 39                               RTS                       ; OLine=480
                      FLOW_A_12_OUTPUT_END:                           
                                                                 
 1264 3510                             PULS     X                ; OLine=487
                                                                 
                                                                 ;  
FLOW_A_11_OUTPUT_END:
                                                                 
 1266 16FF57                           LBRA     FLOW_A_10_OUTPUT_BEGIN 
                                                                 ;  
FLOW_A_10_OUTPUT_FALSE:
                                                                 ;  
FLOW_A_10_OUTPUT_END:
                                                                 
                                                                 ;   RTS ; 
--SubroutineContextEnds-- CLEAN-OrphanReturn- 
                                                                 ; 
</EditorTab>
                                                                 
                                                                 ; <EditorTab 
name="AddToZoo()">
                      ZOO_GATHER_INFO:                           ;  
--SubroutineContextBegins--
                                                                 
                                                                 ;  This 
function gathers all the data about the user's new animal:
                                                                 ;  
NODE_BUF_NEW_1 <= the new question (0's for links)
                                                                 ;  
NODE_BUF_NEW_2 <= the new animal (0's for links)
                                                                 ;  TEMP_A <= 
the user's answer character ('Y' or 'N')
                                                                 
 1269 3406                             PSHS     D                ; OLine=534
 126B 3410                             PSHS     X                ; OLine=535
 126D 3420                             PSHS     Y                ; OLine=536
 126F 3440                             PSHS     U                ; OLine=537
                                                                 
 1271 C660                             LDB      #96              ; OLine=539
 1273 1701BF                           LBSR     CLEAR_SCREEN     ; OLine=540
                                                                 
 1276 8E1670                           LDX      #MSG_STUMP       ; OLine=542
 1279 1701DA                           LBSR     PRINT_MESSAGE    ; OLine=543
                                                                 
 127C CE2312                           LDU      #NODE_BUF_NEW_2  ;  
StructureUsage U is ZOO_NODE
 127F CC0000                           LDD      #0               ; OLine=546
 1282 EDC4                             STD      0,U              
 1284 ED42                             STD      2,U              
 1286 ED44                             STD      4,U              
 1288 3046                             LEAX     6,U              
 128A CE0020                           LDU      #32              ; OLine=551
 128D 17029B                           LBSR     INPUT_STRING     ; OLine=552
 1290 170217                           LBSR     LINE_FEED        ; OLine=553
                                                                 
 1293 8E1735                           LDX      #MSG_GIVE        ; OLine=555
 1296 1701BD                           LBSR     PRINT_MESSAGE    ; OLine=556
 1299 C628                             LDB      #'('             ; OLine=557
 129B 1701D5                           LBSR     PRINT_CHARACTER  ; OLine=558
 129E CE2106                           LDU      #NODE_BUF_CURRENT ; OLine=559
 12A1 3046                             LEAX     6,U              
 12A3 1701B0                           LBSR     PRINT_MESSAGE    ; OLine=561
 12A6 8E1770                           LDX      #MSG_FROM        ; OLine=562
 12A9 1701AA                           LBSR     PRINT_MESSAGE    ; OLine=563
 12AC CE2312                           LDU      #NODE_BUF_NEW_2  ; OLine=564
 12AF 3046                             LEAX     6,U              
 12B1 1701A2                           LBSR     PRINT_MESSAGE    ; OLine=566
 12B4 C629                             LDB      #')'             ; OLine=567
 12B6 1701BA                           LBSR     PRINT_CHARACTER  ; OLine=568
 12B9 C63A                             LDB      #':'             ; OLine=569
 12BB 1701B5                           LBSR     PRINT_CHARACTER  ; OLine=570
 12BE 1701E9                           LBSR     LINE_FEED        ; OLine=571
                                                                 
 12C1 CE220C                           LDU      #NODE_BUF_NEW_1  ; OLine=573
 12C4 CC0000                           LDD      #0               ; OLine=574
 12C7 EDC4                             STD      0,U              
 12C9 ED42                             STD      2,U              
 12CB ED44                             STD      4,U              
 12CD 3046                             LEAX     6,U              
 12CF CE0100                           LDU      #256             
 12D2 170256                           LBSR     INPUT_STRING     ; OLine=580
 12D5 1701D2                           LBSR     LINE_FEED        ; OLine=581
                                                                 
 12D8 8E1777                           LDX      #MSG_WHAT        ; OLine=583
 12DB 170178                           LBSR     PRINT_MESSAGE    ; OLine=584 
                                                                 
 12DE 8E262E                           LDX      #INPUT_BUFFER    ; OLine=586
 12E1 CE0004                           LDU      #4               ; OLine=587
 12E4 170244                           LBSR     INPUT_STRING     ; OLine=588
 12E7 1701C0                           LBSR     LINE_FEED        ; OLine=589
                                                                 
                                                                 ;  Hang on to 
answer for a bit
 12EA A684                             LDA      ,X               ; OLine=592
 12EC B72640                           STA      TEMP_A           ; OLine=593
                                                                 
 12EF 3540                             PULS     U                ; OLine=595
 12F1 3520                             PULS     Y                ; OLine=596
 12F3 3510                             PULS     X                ; OLine=597
 12F5 3506                             PULS     D                ; OLine=598
                                                                 
 12F7 39                               RTS                       ;  
--SubroutineContextEnds--
                                                                 
                      ADD_TO_ZOO:                                ;  
--SubroutineContextBegins--
                                                                 
                                                                 ;  
ZOO_GATHER_INFO()
                                                                 
                                                                 ;  D = 
STRLEN(NODE_BUF_NEW_1->Text)
                                                                 ;  
NODE_BUF_NEW_1->YesNextNode = D + 5 + X->CurrentSize
                                                                 ;  
NODE_BUF_NEW_1->NoNextNode = NODE_BUF_CURRENT->DataOffset
                                                                 
                                                                 ;  if(TEMP_A 
!= 'Y') {
                                                                 ;     D = 
NODE_BUF_NEW_1->YesNextNode
                                                                 ;     
NODE_BUF_NEW_1->YesNextNode = NODE_BUF_NEW_1->NoNextNode
                                                                 ;     
NODE_BUF_NEW_1->NoNextNode = D
                                                                 ;  }
                                                                 
                                                                 ;  B = 
APPEND_NODE(NODE_BUF_NEW_1)
                                                                 ;  if(B==0) {
                                                                 ;    return
                                                                 ;    
OUT_OF_DISK_SPACE()
                                                                 ;  }
                                                                 
                                                                 ;  B = 
APPEND_NODE(NODE_BUF_NEW_2)
                                                                 ;  if(B==0) {
                                                                 ;    return
                                                                 ;    
OUT_OF_DISK_SPACE()
                                                                 ;  }
                                                                 
                                                                 ;  D = 
NODE_BUF_CURRENT->DataOffset
                                                                 ;  Y = 
NODE_BUF_LAST->DataOffset
                                                                 ;  
if(D!=NODE_BUF_LAST->YesNextNode) {
                                                                 ;    Y = Y + 
2
                                                                 ;  }
                                                                 
                                                                 ;  
X->FnSeek(Y)
                                                                 ;  B = 
X->FnWriteBytes(2,NODE_BUF_NEW_1->DataOffset)
                                                                 ;  
                                                                 
                                                                 
                                                                 ;  
NODE_BUF_NEW_1->NoNextNode = NODE_BUF_CURRENT->DataOffset
                                                                 
 12F8 3406                             PSHS     D                ; OLine=641
 12FA 3410                             PSHS     X                ; OLine=642
 12FC 3420                             PSHS     Y                ; OLine=643
 12FE 3440                             PSHS     U                ; OLine=644
                                                                 
 1300 3410                             PSHS     X                ;  
StructureUsage X is FILE_IO
                                                                 
 1302 17FF64                           LBSR     ZOO_GATHER_INFO  ; OLine=648
                                                                 
                                                                 ;  Now we 
have collected all the information.
                                                                 ;  Build the 
new question node and new animal node.
                                                                 
                                                                 ;  The NEW_1 
contains the question. For now we'll set
                                                                 ;  the YES 
link to the new animal and the NO link
                                                                 ;  to the 
last guess (CURRENT)
                                                                 
 1305 308F2212                         LEAX     NODE_BUF_NEW_1+6 
 1309 170342                           LBSR     STRLEN           ; OLine=658
                                                                 
 130C C30005                           ADDD     #5               ; OLine=660
 130F AEE4                             LDX      ,S               ; OLine=661  
FileIO pointer back to X
 1311 E30C                             ADDD     12,X             
 1313 FD220E                           STD      NODE_BUF_NEW_1+2 
 1316 FC2106                           LDD      NODE_BUF_CURRENT+0 
 1319 FD2210                           STD      NODE_BUF_NEW_1+4 
                                                                 
                                                                 ;  If the 
user's answer is not "YES" for the new animal, swap
                                                                 ;  the Yes/No 
links
                                                                 
 131C B62640                           LDA      TEMP_A           ; OLine=670
                                                                 ;  polarity 1
                                                                 ;   LBRA  
FLOW_A_16_1_INPUT
                                                                 ;  
FLOW_A_16_1_INPUT:
                                                                 ;  polarity 0
 131F 8159                             CMPA     #'Y'             
 1321 10260003                         LBNE     FLOW_A_16_OUTPUT_TRUE 
                                                                 ;   LBRA 
FLOW_A_16_OUTPUT_FALSE
                                                                 ;  
FLOW_A_16_OUTPUT_FALSE:
 1325 16000C                           LBRA     FLOW_A_16_OUTPUT_END 
                      FLOW_A_16_OUTPUT_TRUE:                           
 1328 FC220E                           LDD      NODE_BUF_NEW_1+2 
 132B BE2210                           LDX      NODE_BUF_NEW_1+4 
 132E BF220E                           STX      NODE_BUF_NEW_1+2 
 1331 FD2210                           STD      NODE_BUF_NEW_1+4 
                      FLOW_A_16_OUTPUT_END:                           
                                                                 
 1334 3510                             PULS     X                ; OLine=678  
Restoring the FILE_IO
                                                                 
                                                                 ;  Append 
question node to end of zoo
 1336 CE220C                           LDU      #NODE_BUF_NEW_1  ;  
StructureUsage U is ZOO_NODE
 1339 17005B                           LBSR     APPEND_NODE      ; OLine=682
                                                                 ;  polarity 1
                                                                 ;   LBRA  
FLOW_A_17_1_INPUT
                                                                 ;  
FLOW_A_17_1_INPUT:
                                                                 ;  polarity 0
 133C C100                             CMPB     #0               
 133E 10270003                         LBEQ     FLOW_A_17_OUTPUT_TRUE 
                                                                 ;   LBRA 
FLOW_A_17_OUTPUT_FALSE
                                                                 ;  
FLOW_A_17_OUTPUT_FALSE:
 1342 16000C                           LBRA     FLOW_A_17_OUTPUT_END 
                      FLOW_A_17_OUTPUT_TRUE:                           
 1345 17008B                           LBSR     OUT_OF_DISK_SPACE ; OLine=684
 1348 3540                             PULS     U                ; OLine=685
 134A 3520                             PULS     Y                ; OLine=686
 134C 3510                             PULS     X                ; OLine=687
 134E 3506                             PULS     D                ; OLine=688
 1350 39                               RTS                       ; OLine=689
                      FLOW_A_17_OUTPUT_END:                           
                                                                 
                                                                 ;  Append new 
animal node to end of zoo
 1351 CE2312                           LDU      #NODE_BUF_NEW_2  ; OLine=693
 1354 170040                           LBSR     APPEND_NODE      ; OLine=694
                                                                 ;  polarity 1
                                                                 ;   LBRA  
FLOW_A_18_1_INPUT
                                                                 ;  
FLOW_A_18_1_INPUT:
                                                                 ;  polarity 0
 1357 C100                             CMPB     #0               
 1359 10270003                         LBEQ     FLOW_A_18_OUTPUT_TRUE 
                                                                 ;   LBRA 
FLOW_A_18_OUTPUT_FALSE
                                                                 ;  
FLOW_A_18_OUTPUT_FALSE:
 135D 16000C                           LBRA     FLOW_A_18_OUTPUT_END 
                      FLOW_A_18_OUTPUT_TRUE:                           
 1360 170070                           LBSR     OUT_OF_DISK_SPACE ; OLine=696
 1363 3540                             PULS     U                ; OLine=697
 1365 3520                             PULS     Y                ; OLine=698
 1367 3510                             PULS     X                ; OLine=699
 1369 3506                             PULS     D                ; OLine=700
 136B 39                               RTS                       ; OLine=701
                      FLOW_A_18_OUTPUT_END:                           
                                                                 
                                                                 ;  At this 
point the nodes were added successfully.
                                                                 ;  We need to 
change the link in the last question (LAST) to
                                                                 ;  point to 
the new question.
                                                                 
 136C FC2106                           LDD      NODE_BUF_CURRENT+0 
 136F 10BE2000                         LDY      NODE_BUF_LAST+0  
                                                                 ;  polarity 1
                                                                 ;   LBRA  
FLOW_A_19_1_INPUT
                                                                 ;  
FLOW_A_19_1_INPUT:
                                                                 ;  polarity 0
 1373 10B32002                         CMPD     NODE_BUF_LAST+2  
 1377 10260003                         LBNE     FLOW_A_19_OUTPUT_TRUE 
                                                                 ;   LBRA 
FLOW_A_19_OUTPUT_FALSE
                                                                 ;  
FLOW_A_19_OUTPUT_FALSE:
 137B 160002                           LBRA     FLOW_A_19_OUTPUT_END 
                      FLOW_A_19_OUTPUT_TRUE:                           
 137E 3122                             LEAY     2,Y              ; OLine=711
                      FLOW_A_19_OUTPUT_END:                           
                                                                 
                                                                 ;  Y points 
to the data offset of the link to change
 1380 AD9806                           JSR      [6,X]            
                                                                 
 1383 338F220C                         LEAU     NODE_BUF_NEW_1+0 
 1387 108E0002                         LDY      #2               ; OLine=718
 138B AD9802                           JSR      [2,X]            
                                                                 
 138E 3540                             PULS     U                ; OLine=721
 1390 3520                             PULS     Y                ; OLine=722
 1392 3510                             PULS     X                ; OLine=723
 1394 3506                             PULS     D                ; OLine=724
                                                                 
 1396 39                               RTS                       ;  
--SubroutineContextEnds--
                                                                 
                      APPEND_NODE:                               ;  
--SubroutineContextBegins--
 1397 3402                             PSHS     A                ; OLine=729
 1399 3420                             PSHS     Y                ; OLine=730
 139B 3440                             PSHS     U                ; OLine=731
                                                                 ;  
StructureUsage U is ZOO_NODE
                                                                 ;  
StructureUsage X is FILE_IO
 139D 10AE0C                           LDY      12,X             
 13A0 10AFC4                           STY      0,U              ;  This is 
the new home
 13A3 AD9806                           JSR      [6,X]            
 13A6 3410                             PSHS     X                ; OLine=737
 13A8 3046                             LEAX     6,U              
 13AA 1702A1                           LBSR     STRLEN           ; OLine=739
 13AD 3510                             PULS     X                ; OLine=740
 13AF C30005                           ADDD     #5               ; OLine=741
 13B2 1F02                             TFR      D,Y              ; OLine=742
 13B4 3342                             LEAU     2,U              
 13B6 AD9802                           JSR      [2,X]            
 13B9 3420                             PSHS     Y                ; OLine=745
 13BB A3E1                             SUBD     ,S++             ; OLine=746
                                                                 ;  polarity 1
                                                                 ;   LBRA  
FLOW_A_20_1_INPUT
                                                                 ;  
FLOW_A_20_1_INPUT:
                                                                 ;  polarity 0
 13BD 10830000                         CMPD     #0               
 13C1 10260005                         LBNE     FLOW_A_20_OUTPUT_TRUE 
                                                                 ;   LBRA 
FLOW_A_20_OUTPUT_FALSE
                                                                 ;  
FLOW_A_20_OUTPUT_FALSE:
 13C5 C601                             LDB      #1               ; OLine=750
 13C7 160002                           LBRA     FLOW_A_20_OUTPUT_END 
                      FLOW_A_20_OUTPUT_TRUE:                           
 13CA C600                             LDB      #0               ; OLine=748
                      FLOW_A_20_OUTPUT_END:                           
 13CC 3540                             PULS     U                ; OLine=752
 13CE 3520                             PULS     Y                ; OLine=753
 13D0 3502                             PULS     A                ; OLine=754
 13D2 39                               RTS                       ;  
--SubroutineContextEnds--
                                                                 
                      OUT_OF_DISK_SPACE:                           ;  
--SubroutineContextBegins--
 13D3 3410                             PSHS     X                ; OLine=758
 13D5 8E17A8                           LDX      #MSG_OUT_OF_SPACE ; OLine=759
 13D8 17007B                           LBSR     PRINT_MESSAGE    ; OLine=760
 13DB 3510                             PULS     X                ; OLine=761
 13DD 39                               RTS                       ;  
--SubroutineContextEnds--
                                                                 
                                                                 ; 
</EditorTab>
                                                                 
                                                                 ; <EditorTab 
name="Zoo Functions">
                                                                 ; 
=======================================================================
                                                                 ;  ZOO 
DATABASE FUNCTIONS
                                                                 ; 
=======================================================================
                                                                 
                      LOAD_ZOO_NODE:                             ;  
--SubroutineContextBegins--
                                                                 ;  
StructureUsage X is FILE_IO 
 13DE 3406                             PSHS     D                ; OLine=773
 13E0 3420                             PSHS     Y                ; OLine=774
 13E2 3440                             PSHS     U                ; OLine=775
 13E4 CE2106                           LDU      #NODE_BUF_CURRENT ;  
StructureUsage U is ZOO_NODE
 13E7 10AFC4                           STY      0,U              
 13EA AD9806                           JSR      [6,X]            
 13ED 3342                             LEAU     2,U              ; OLine=779
 13EF 108E0004                         LDY      #4               ; OLine=780
 13F3 AD94                             JSR      [0,X]            
 13F5 3344                             LEAU     4,U              ; OLine=782
 13F7 108E0001                         LDY      #1               ; OLine=783
                                                                 ;  
FLOW_A_21_OUTPUT_BEGIN:
                      FLOW_A_21_OUTPUT_TRUE:                           
 13FB AD94                             JSR      [0,X]            
 13FD A6C0                             LDA      ,U+              ; OLine=786
                                                                 ;   LBRA  
FLOW_A_21_1_INPUT
                                                                 ;  
FLOW_A_21_1_INPUT:
                                                                 ;  polarity 0
 13FF 8100                             CMPA     #0               
 1401 1026FFF6                         LBNE     FLOW_A_21_OUTPUT_TRUE 
*** warning 1: Long branch within short branch range could be optimized
                                                                 ;   LBRA 
FLOW_A_21_OUTPUT_FALSE
                                                                 ;  
FLOW_A_21_OUTPUT_FALSE:
                                                                 ;  
FLOW_A_21_OUTPUT_END:
                                                                 
 1405 3540                             PULS     U                ; OLine=789
 1407 3520                             PULS     Y                ; OLine=790
 1409 3506                             PULS     D                ; OLine=791
 140B 39                               RTS                       ;  
--SubroutineContextEnds--
                                                                 
                      COPY_CURRENT_TO_LAST:                           ;  
--SubroutineContextBegins--
 140C 3402                             PSHS     A                ; OLine=795
 140E 3410                             PSHS     X                ; OLine=796
 1410 3420                             PSHS     Y                ; OLine=797
 1412 3440                             PSHS     U                ; OLine=798
 1414 8E2106                           LDX      #NODE_BUF_CURRENT ; OLine=799
 1417 CE2000                           LDU      #NODE_BUF_LAST   ; OLine=800
 141A 108E0106                         LDY      #262             
                                                                 ;  
FLOW_A_22_OUTPUT_BEGIN:
                      FLOW_A_22_OUTPUT_TRUE:                           
 141E A680                             LDA      ,X+              ; OLine=803
 1420 A7C0                             STA      ,U+              ; OLine=804
 1422 313F                             LEAY     -1,Y             ; OLine=805
                                                                 ;   LBRA  
FLOW_A_22_1_INPUT
                                                                 ;  
FLOW_A_22_1_INPUT:
                                                                 ;  polarity 0
 1424 108C0000                         CMPY     #0               
 1428 1026FFF2                         LBNE     FLOW_A_22_OUTPUT_TRUE 
*** warning 1: Long branch within short branch range could be optimized
                                                                 ;   LBRA 
FLOW_A_22_OUTPUT_FALSE
                                                                 ;  
FLOW_A_22_OUTPUT_FALSE:
                                                                 ;  
FLOW_A_22_OUTPUT_END:
 142C 3540                             PULS     U                ; OLine=807
 142E 3520                             PULS     Y                ; OLine=808
 1430 3510                             PULS     X                ; OLine=809
 1432 3502                             PULS     A                ; OLine=810
 1434 39                               RTS                       ;  
--SubroutineContextEnds--
                                                                 
                                                                 ; DUMP_ZOO() 
{ ; X=start, Y=num bytes
                                                                 ;    U = 
#$400
                                                                 ;    do {
                                                                 ;     A = ,X+
                                                                 ;     ,U+ = A
                                                                 ;     --Y
                                                                 ;    } 
while(Y!=0);
                                                                 ; }
                                                                 
                                                                 ; 
</EditorTab>
                                                                 
                                                                 ; <EditorTab 
name="Screen Functions">
                                                                 
                      CLEAR_SCREEN:                              ;  
--SubroutineContextBegins--
 1435 3410                             PSHS     X                ; OLine=827
 1437 8E0400                           LDX      #$400            ; OLine=828
 143A BF263E                           STX      SCREEN_CURSOR    ; OLine=829
                      FLOW_A_23_OUTPUT_BEGIN:                           
                                                                 ;   LBRA  
FLOW_A_23_1_INPUT
                                                                 ;  
FLOW_A_23_1_INPUT:
                                                                 ;  polarity 1
 143D 8C0600                           CMPX     #$600            
 1440 10270005                         LBEQ     FLOW_A_23_OUTPUT_FALSE 
                                                                 ;   LBRA 
FLOW_A_23_OUTPUT_TRUE
                                                                 ;  
FLOW_A_23_OUTPUT_TRUE:
 1444 E780                             STB      ,X+              ; OLine=831
 1446 16FFF4                           LBRA     FLOW_A_23_OUTPUT_BEGIN 
*** warning 1: Long branch within short branch range could be optimized
                      FLOW_A_23_OUTPUT_FALSE:                           
                                                                 ;  
FLOW_A_23_OUTPUT_END:
 1449 3510                             PULS     X                ; OLine=833
 144B 39                               RTS                       ;  
--SubroutineContextEnds--
                                                                 
                      SET_SCREEN_CURSOR:                           ;  
--SubroutineContextBegins--
 144C 10BF263E                         STY      SCREEN_CURSOR    ; OLine=837
 1450 39                               RTS                       ;  
--SubroutineContextEnds--
                      GET_SCREEN_CURSOR:                           ;  
--SubroutineContextBegins--
 1451 10BE263E                         LDY      SCREEN_CURSOR    ; OLine=840
 1455 39                               RTS                       ;  
--SubroutineContextEnds--
                                                                 
                      PRINT_MESSAGE:                             ;  
--SubroutineContextBegins--
 1456 3404                             PSHS     B                ; OLine=844
 1458 3410                             PSHS     X                ; OLine=845
                                                                 
                      FLOW_A_24_OUTPUT_BEGIN:                           
                                                                 ;   LBRA  
FLOW_A_24_1_INPUT
                                                                 ;  
FLOW_A_24_1_INPUT:
                                                                 ;  polarity 0
                                                                 ;   LBRA 
FLOW_A_24_OUTPUT_TRUE
                                                                 ;  
FLOW_A_24_OUTPUT_TRUE:
 145A E680                             LDB      ,X+              ; OLine=848
                                                                 ;  polarity 1
                                                                 ;   LBRA  
FLOW_A_25_1_INPUT
                                                                 ;  
FLOW_A_25_1_INPUT:
                                                                 ;  polarity 0
 145C C100                             CMPB     #0               
 145E 1027000C                         LBEQ     FLOW_A_24_OUTPUT_END ; 
CLEAN-JumpToJump- FLOW_A_25_OUTPUT_TRUE
                                                                 ;   LBRA 
FLOW_A_25_OUTPUT_FALSE
                                                                 ;  
FLOW_A_25_OUTPUT_FALSE:
 1462 160003                           LBRA     FLOW_A_25_OUTPUT_END 
                                                                 ;  
FLOW_A_25_OUTPUT_TRUE:
 1465 160006                           LBRA     FLOW_A_24_OUTPUT_END ; 
OLine=850     
                      FLOW_A_25_OUTPUT_END:                           
 1468 170008                           LBSR     PRINT_CHARACTER  ; OLine=852
 146B 16FFEC                           LBRA     FLOW_A_24_OUTPUT_BEGIN 
*** warning 1: Long branch within short branch range could be optimized
                                                                 ;  
FLOW_A_24_OUTPUT_FALSE:
                      FLOW_A_24_OUTPUT_END:                           
                                                                 
 146E 3510                             PULS     X                ; OLine=855
 1470 3504                             PULS     B                ; OLine=856
 1472 39                               RTS                       ;  
--SubroutineContextEnds--
                                                                 
                      PRINT_CHARACTER:                           ;  
--SubroutineContextBegins--
 1473 3406                             PSHS     D                ; OLine=860
 1475 3440                             PSHS     U                ; OLine=861
 1477 3420                             PSHS     Y                ; OLine=862
                                                                 
                                                                 ;  polarity 1
                                                                 ;   LBRA  
FLOW_A_26_1_INPUT
                                                                 ;  
FLOW_A_26_1_INPUT:
                                                                 ;  polarity 0
 1479 C10D                             CMPB     #13              
 147B 10270021                         LBEQ     FLOW_A_26_OUTPUT_TRUE 
                                                                 ;   LBRA 
FLOW_A_26_OUTPUT_FALSE
                                                                 ;  
FLOW_A_26_OUTPUT_FALSE:
 147F CE15B7                           LDU      #ASCIITRANS      ; OLine=867
 1482 E6C5                             LDB      B,U              ; OLine=868
 1484 17FFCA                           LBSR     GET_SCREEN_CURSOR ; OLine=869
*** warning 1: Long branch within short branch range could be optimized
 1487 E7A0                             STB      ,Y+              ; OLine=870
                                                                 ;  polarity 1
                                                                 ;   LBRA  
FLOW_A_27_1_INPUT
                                                                 ;  
FLOW_A_27_1_INPUT:
                                                                 ;  polarity 0
 1489 108C0600                         CMPY     #$600            
 148D 102C0003                         LBGE     FLOW_A_27_OUTPUT_TRUE 
                                                                 ;   LBRA 
FLOW_A_27_OUTPUT_FALSE
                                                                 ;  
FLOW_A_27_OUTPUT_FALSE:
 1491 160006                           LBRA     FLOW_A_27_OUTPUT_END 
                      FLOW_A_27_OUTPUT_TRUE:                           
 1494 170071                           LBSR     SCROLL           ; OLine=872
 1497 31A8E0                           LEAY     -32,Y            ; OLine=873
                      FLOW_A_27_OUTPUT_END:                           
 149A 17FFAF                           LBSR     SET_ScREEN_CURSOR ; OLine=875
*** warning 1: Long branch within short branch range could be optimized
 149D 160003                           LBRA     FLOW_A_26_OUTPUT_END 
                      FLOW_A_26_OUTPUT_TRUE:                           
 14A0 170007                           LBSR     LINE_FEED        ; OLine=865
                      FLOW_A_26_OUTPUT_END:                           
                                                                 
 14A3 3520                             PULS     Y                ; OLine=878
 14A5 3540                             PULS     U                ; OLine=879
 14A7 3506                             PULS     D                ; OLine=880
 14A9 39                               RTS                       ;  
--SubroutineContextEnds--
                                                                 
                      LINE_FEED:                                 ;  
--SubroutineContextBegins--
 14AA 3406                             PSHS     D                ; OLine=884
 14AC 3420                             PSHS     Y                ; OLine=885
 14AE 17FFA0                           LBSR     GET_SCREEN_CURSOR ; OLine=886
*** warning 1: Long branch within short branch range could be optimized
 14B1 1F20                             TFR      Y,D              ; OLine=887
 14B3 1F98                             TFR      B,A              ; OLine=888
 14B5 841F                             ANDA     #31              ; OLine=889
 14B7 C620                             LDB      #' '             ; OLine=890
                                                                 ;  
FLOW_A_28_OUTPUT_BEGIN:
                      FLOW_A_28_OUTPUT_TRUE:                           
 14B9 17FFB7                           LBSR     PRINT_CHARACTER  ; OLine=892
*** warning 1: Long branch within short branch range could be optimized
 14BC 4C                               INCA                      ; OLine=893
                                                                 ;   LBRA  
FLOW_A_28_1_INPUT
                                                                 ;  
FLOW_A_28_1_INPUT:
                                                                 ;  polarity 0
 14BD 8120                             CMPA     #32              
 14BF 1026FFF6                         LBNE     FLOW_A_28_OUTPUT_TRUE 
*** warning 1: Long branch within short branch range could be optimized
                                                                 ;   LBRA 
FLOW_A_28_OUTPUT_FALSE
                                                                 ;  
FLOW_A_28_OUTPUT_FALSE:
                                                                 ;  
FLOW_A_28_OUTPUT_END:
 14C3 3520                             PULS     Y                ; OLine=895
 14C5 3506                             PULS     D                ; OLine=896
 14C7 39                               RTS                       ;  
--SubroutineContextEnds--
                                                                 
                      PRINT_HEX_DIGIT:                           ;  
--SubroutineContextBegins--
 14C8 3404                             PSHS     B                ; OLine=900
                                                                 ;  polarity 1
                                                                 ;   LBRA  
FLOW_A_29_1_INPUT
                                                                 ;  
FLOW_A_29_1_INPUT:
                                                                 ;  polarity 0
 14CA C10A                             CMPB     #10              
 14CC 102D0007                         LBLT     FLOW_A_29_OUTPUT_TRUE 
                                                                 ;   LBRA 
FLOW_A_29_OUTPUT_FALSE
                                                                 ;  
FLOW_A_29_OUTPUT_FALSE:
 14D0 C00A                             SUBB     #10              ; OLine=904
 14D2 CB41                             ADDB     #'A'             ; OLine=905
 14D4 160002                           LBRA     FLOW_A_29_OUTPUT_END 
                      FLOW_A_29_OUTPUT_TRUE:                           
 14D7 CB30                             ADDB     #'0'             ; OLine=902
                      FLOW_A_29_OUTPUT_END:                           
 14D9 17FF97                           LBSR     PRINT_CHARACTER  ; OLine=907
*** warning 1: Long branch within short branch range could be optimized
 14DC 3504                             PULS     B                ; OLine=908
 14DE 39                               RTS                       ;  
--SubroutineContextEnds--
                                                                 
                      PRINT_HEX_WORD:                            ;  
--SubroutineContextBegins--
 14DF 3406                             PSHS     D                ; OLine=912
 14E1 3406                             PSHS     D                ; OLine=913
 14E3 1F89                             TFR      A,B              ; OLine=914
 14E5 54                               LSRB                      ; OLine=915
 14E6 54                               LSRB                      ; OLine=916
 14E7 54                               LSRB                      ; OLine=917
 14E8 54                               LSRB                      ; OLine=918
 14E9 17FFDC                           LBSR     PRINT_HEX_DIGIT  ; OLine=919
*** warning 1: Long branch within short branch range could be optimized
 14EC 1F89                             TFR      A,B              ; OLine=920
 14EE C40F                             ANDB     #$0F             ; OLine=921
 14F0 17FFD5                           LBSR     PRINT_HEX_DIGIT  ; OLine=922
*** warning 1: Long branch within short branch range could be optimized
 14F3 3506                             PULS     D                ; OLine=923
 14F5 1F98                             TFR      B,A              ; OLine=924
 14F7 54                               LSRB                      ; OLine=925
 14F8 54                               LSRB                      ; OLine=926
 14F9 54                               LSRB                      ; OLine=927
 14FA 54                               LSRB                      ; OLine=928
 14FB 17FFCA                           LBSR     PRINT_HEX_DIGIT  ; OLine=929
*** warning 1: Long branch within short branch range could be optimized
 14FE 1F89                             TFR      A,B              ; OLine=930
 1500 C40F                             ANDB     #$0F             ; OLine=931
 1502 17FFC3                           LBSR     PRINT_HEX_DIGIT  ; OLine=932
*** warning 1: Long branch within short branch range could be optimized
 1505 3506                             PULS     D                ; OLine=933
 1507 39                               RTS                       ;  
--SubroutineContextEnds--
                                                                 
                      SCROLL:                                    ;  
--SubroutineContextBegins--
 1508 3406                             PSHS     D                ; OLine=937
 150A 3410                             PSHS     X                ; OLine=938
 150C 8E0400                           LDX      #$400            ; OLine=939
                                                                 ;  
FLOW_A_30_OUTPUT_BEGIN:
                      FLOW_A_30_OUTPUT_TRUE:                           
 150F A68820                           LDA      32,X             ; OLine=941
 1512 A780                             STA      ,x+              ; OLine=942
                                                                 ;   LBRA  
FLOW_A_30_1_INPUT
                                                                 ;  
FLOW_A_30_1_INPUT:
                                                                 ;  polarity 0
 1514 8C05E0                           CMPX     #$600-32         
 1517 1026FFF4                         LBNE     FLOW_A_30_OUTPUT_TRUE 
*** warning 1: Long branch within short branch range could be optimized
                                                                 ;   LBRA 
FLOW_A_30_OUTPUT_FALSE
                                                                 ;  
FLOW_A_30_OUTPUT_FALSE:
                                                                 ;  
FLOW_A_30_OUTPUT_END:
 151B 8660                             LDA      #96              ; OLine=944
                                                                 ;  
FLOW_A_31_OUTPUT_BEGIN:
                      FLOW_A_31_OUTPUT_TRUE:                           
 151D A780                             STA      ,x+              ; OLine=946
                                                                 ;   LBRA  
FLOW_A_31_1_INPUT
                                                                 ;  
FLOW_A_31_1_INPUT:
                                                                 ;  polarity 0
 151F 8C0600                           CMPX     #$600            
 1522 1026FFF7                         LBNE     FLOW_A_31_OUTPUT_TRUE 
*** warning 1: Long branch within short branch range could be optimized
                                                                 ;   LBRA 
FLOW_A_31_OUTPUT_FALSE
                                                                 ;  
FLOW_A_31_OUTPUT_FALSE:
                                                                 ;  
FLOW_A_31_OUTPUT_END:
 1526 3510                             PULS     x                ; OLine=948
 1528 3506                             PULS     D                ; OLine=949
 152A 39                               RTS                       ;  
--SubroutineContextEnds--
                                                                 
                      INPUT_STRING:                              ;  
--SubroutineContextBegins--
                                                                 
 152B 3410                             PSHS     X                ; OLine=954
 152D 3440                             PSHS     U                ; OLine=955
 152F 3420                             PSHS     Y                ; OLine=956
 1531 3406                             PSHS     D                ; OLine=957
                                                                 
 1533 17FF1B                           LBSR     GET_SCREEN_CURSOR ; OLine=959
                                                                 
 1536 3410                             PSHS     X                ; OLine=961
 1538 335F                             LEAU     -1,U             ; OLine=962
 153A 3440                             PSHS     U                ; OLine=963
 153C 1F10                             TFR      X,D              ; OLine=964
 153E E3E4                             ADDD     ,S               ; OLine=965
 1540 EDE4                             STD      ,S               ; OLine=966
                                                                 
 1542 CE15B7                           LDU      #ASCIITRANS      ; OLine=968
                                                                 
                      FLOW_A_32_OUTPUT_BEGIN:                           
                                                                 ;   LBRA  
FLOW_A_32_1_INPUT
                                                                 ;  
FLOW_A_32_1_INPUT:
                                                                 ;  polarity 0
                                                                 ;   LBRA 
FLOW_A_32_OUTPUT_TRUE
                                                                 ;  
FLOW_A_32_OUTPUT_TRUE:
                                                                 
 1545 8680                             LDA      #128             ; OLine=972
 1547 A7A4                             STA      ,Y               ; OLine=973
 1549 AD9FA000                         JSR      [$A000]          ; OLine=974
                                                                 ;  polarity 1
                                                                 ;   LBRA  
FLOW_A_33_1_INPUT
                                                                 ;  
FLOW_A_33_1_INPUT:
                                                                 ;  polarity 0
 154D 1027FFF4                         LBEQ     FLOW_A_32_OUTPUT_BEGIN ; 
CLEAN-JumpToJump- FLOW_A_33_OUTPUT_TRUE
*** warning 1: Long branch within short branch range could be optimized
                                                                 ;   LBRA 
FLOW_A_33_OUTPUT_FALSE
                                                                 ;  
FLOW_A_33_OUTPUT_FALSE:
 1551 160003                           LBRA     FLOW_A_33_OUTPUT_END 
                                                                 ;  
FLOW_A_33_OUTPUT_TRUE:
 1554 16FFEE                           LBRA     FLOW_A_32_OUTPUT_BEGIN ; 
OLine=976 
*** warning 1: Long branch within short branch range could be optimized
                      FLOW_A_33_OUTPUT_END:                           
                                                                 
                                                                 ;  Process 
ENTER
                                                                 ;  polarity 1
                                                                 ;   LBRA  
FLOW_A_34_1_INPUT
                                                                 ;  
FLOW_A_34_1_INPUT:
                                                                 ;  polarity 0
 1557 810D                             CMPA     #13              
 1559 10270003                         LBEQ     FLOW_A_34_OUTPUT_TRUE 
                                                                 ;   LBRA 
FLOW_A_34_OUTPUT_FALSE
                                                                 ;  
FLOW_A_34_OUTPUT_FALSE:
 155D 160014                           LBRA     FLOW_A_34_OUTPUT_END 
                      FLOW_A_34_OUTPUT_TRUE:                           
 1560 8600                             LDA      #0               ; OLine=981
 1562 A784                             STA      ,X               ; OLine=982
 1564 17FEE5                           LBSR     SET_SCREEN_CURSOR ; OLine=983
 1567 3510                             PULS     X                ; OLine=984
 1569 3510                             PULS     X                ; OLine=985
                                                                 
 156B 3506                             PULS     D                ; OLine=987
 156D 3520                             PULS     Y                ; OLine=988
 156F 3540                             PULS     U                ; OLine=989
 1571 3510                             PULS     X                ; OLine=990
 1573 39                               RTS                       ; OLine=991
                      FLOW_A_34_OUTPUT_END:                           
                                                                 
                                                                 ;  polarity 1
                                                                 ;   LBRA  
FLOW_A_35_1_INPUT
                                                                 ;  
FLOW_A_35_1_INPUT:
                                                                 ;  polarity 0
 1574 8108                             CMPA     #8               
 1576 10270003                         LBEQ     FLOW_A_35_OUTPUT_TRUE 
                                                                 ;   LBRA 
FLOW_A_35_OUTPUT_FALSE
                                                                 ;  
FLOW_A_35_OUTPUT_FALSE:
 157A 160014                           LBRA     FLOW_A_35_OUTPUT_END 
                      FLOW_A_35_OUTPUT_TRUE:                           
                                                                 ;  Make there 
is something to erase
                                                                 ;  polarity 1
                                                                 ;   LBRA  
FLOW_A_36_1_INPUT
                                                                 ;  
FLOW_A_36_1_INPUT:
                                                                 ;  polarity 0
 157D AC62                             CMPX     2,S              
 157F 102E0003                         LBGT     FLOW_A_36_OUTPUT_TRUE 
                                                                 ;   LBRA 
FLOW_A_36_OUTPUT_FALSE
                                                                 ;  
FLOW_A_36_OUTPUT_FALSE:
 1583 16FFBF                           LBRA     FLOW_A_32_OUTPUT_BEGIN ; 
CLEAN-JumpToJump- FLOW_A_36_OUTPUT_END
*** warning 1: Long branch within short branch range could be optimized
                      FLOW_A_36_OUTPUT_TRUE:                           
 1586 301F                             LEAX     -1,X             ; OLine=997
 1588 8660                             LDA      #96              ; OLine=998
 158A A7A4                             STA      ,Y               ; OLine=999
 158C 313F                             LEAY     -1,Y             ; OLine=1000
                                                                 ;  
FLOW_A_36_OUTPUT_END:
 158E 16FFB4                           LBRA     FLOW_A_32_OUTPUT_BEGIN ; 
OLine=1002
*** warning 1: Long branch within short branch range could be optimized
                      FLOW_A_35_OUTPUT_END:                           
                                                                 
                                                                 ;  polarity 1
                                                                 ;   LBRA  
FLOW_A_37_1_INPUT
                                                                 ;  
FLOW_A_37_1_INPUT:
                                                                 ;  polarity 0
 1591 ACE4                             CMPX     ,S               
 1593 1027FFAE                         LBEQ     FLOW_A_32_OUTPUT_BEGIN ; 
CLEAN-JumpToJump- FLOW_A_37_OUTPUT_TRUE
*** warning 1: Long branch within short branch range could be optimized
                                                                 ;   LBRA 
FLOW_A_37_OUTPUT_FALSE
                                                                 ;  
FLOW_A_37_OUTPUT_FALSE:
 1597 160003                           LBRA     FLOW_A_37_OUTPUT_END 
                                                                 ;  
FLOW_A_37_OUTPUT_TRUE:
                                                                 ;  No more 
room in buffer
 159A 16FFA8                           LBRA     FLOW_A_32_OUTPUT_BEGIN ; 
OLine=1007
*** warning 1: Long branch within short branch range could be optimized
                      FLOW_A_37_OUTPUT_END:                           
                                                                 
                                                                 ;  Store key 
in buffer
 159D A780                             STA      ,X+              ; OLine=1011
                                                                 
                                                                 ;  Echo key 
to screen     
 159F A6C6                             LDA      A,U              ; OLine=1014
 15A1 A7A0                             STA      ,Y+              ; OLine=1015
                                                                 ;  polarity 1
                                                                 ;   LBRA  
FLOW_A_38_1_INPUT
                                                                 ;  
FLOW_A_38_1_INPUT:
                                                                 ;  polarity 0
 15A3 108C0600                         CMPY     #$600            
 15A7 10270003                         LBEQ     FLOW_A_38_OUTPUT_TRUE 
                                                                 ;   LBRA 
FLOW_A_38_OUTPUT_FALSE
                                                                 ;  
FLOW_A_38_OUTPUT_FALSE:
 15AB 16FF97                           LBRA     FLOW_A_32_OUTPUT_BEGIN ; 
CLEAN-JumpToJump- FLOW_A_38_OUTPUT_END
*** warning 1: Long branch within short branch range could be optimized
                      FLOW_A_38_OUTPUT_TRUE:                           
 15AE 17FF57                           LBSR     SCROLL           ; OLine=1017
 15B1 31A8E0                           LEAY     -32,Y            ; OLine=1018
                                                                 ;  
FLOW_A_38_OUTPUT_END:
                                                                 
 15B4 16FF8E                           LBRA     FLOW_A_32_OUTPUT_BEGIN 
*** warning 1: Long branch within short branch range could be optimized
                                                                 ;  
FLOW_A_32_OUTPUT_FALSE:
                                                                 ;  
FLOW_A_32_OUTPUT_END:
                                                                 
                                                                 ;   RTS ; 
--SubroutineContextEnds-- CLEAN-OrphanReturn- 
                                                                 
                      ASCIITRANS:                                ; OLine=1025
 15B7 20202020202020                   fcb      32,32,32,32,32,32,32,32,32,32,32
,32,32,32,32,32 ; OLine=1026
 15BE 20202020202020
 15C5 2020
 15C7 20202020202020                   fcb      32,32,32,32,32,32,32,32,32,32,32
,32,32,32,32,32 ; OLine=1027
 15CE 20202020202020
 15D5 2020
 15D7 60616263646566                   fcb      96,97,98,99,100,101,102,103,104,
105,106,107,108,109,110,111 ; OLine=1028
 15DE 6768696A6B6C6D
 15E5 6E6F
 15E7 70717273747576                   fcb      112,113,114,115,116,117,118,119,
120,121,122,123,124,125,126,127 ; OLine=1029
 15EE 7778797A7B7C7D
 15F5 7E7F
 15F7 40414243444546                   fcb      64,65,66,67,68,69,70,71,72,73,74
,75,76,77,78,79 ; OLine=1030
 15FE 4748494A4B4C4D
 1605 4E4F
 1607 50515253545556                   fcb      80,81,82,83,84,85,86,87,88,89,90
,91,92,93,94,95 ; OLine=1031
 160E 5758595A5B5C5D
 1615 5E5F
 1617 00010203040506                   fcb      0,1,2,3,4,5,6,7,8,9,10,11,12,13,
14,15 ; OLine=1032
 161E 0708090A0B0C0D
 1625 0E0F
 1627 10111213141516                   fcb      16,17,18,19,20,21,22,23,24,25,26
,27,28,29,30,31 ; OLine=1033
 162E 1718191A1B1C1D
 1635 1E1F
                                                                 
                                                                 ; 
</EditorTab>
                                                                 
                                                                 
                                                                 ; <EditorTab 
name="String Functions">
                                                                 
                                                                 ;  STRING 
FUNCTIONS
                      STRCPY:                                    ;  
--SubroutineContextBegins--
 1637 3402                             PSHS     A                ; OLine=1042  
TOPHER REGSAVE(A,X,Y)
 1639 3410                             PSHS     X                ; OLine=1043
 163B 3420                             PSHS     Y                ; OLine=1044
                                                                 ;  
FLOW_A_39_OUTPUT_BEGIN:
                      FLOW_A_39_OUTPUT_TRUE:                           
 163D A680                             LDA      ,X+              ; OLine=1046
 163F A7A0                             STA      ,Y+              ; OLine=1047
                                                                 ;   LBRA  
FLOW_A_39_1_INPUT
                                                                 ;  
FLOW_A_39_1_INPUT:
                                                                 ;  polarity 0
 1641 8100                             CMPA     #0               
 1643 1026FFF6                         LBNE     FLOW_A_39_OUTPUT_TRUE 
*** warning 1: Long branch within short branch range could be optimized
                                                                 ;   LBRA 
FLOW_A_39_OUTPUT_FALSE
                                                                 ;  
FLOW_A_39_OUTPUT_FALSE:
                                                                 ;  
FLOW_A_39_OUTPUT_END:
 1647 3520                             PULS     Y                ; OLine=1049  
REGRESTORE()
 1649 3510                             PULS     X                ; OLine=1050
 164B 3502                             PULS     A                ; OLine=1051
 164D 39                               RTS                       ;  
--SubroutineContextEnds--
                                                                 
                      STRLEN:                                    ;  
--SubroutineContextBegins--
 164E 3410                             PSHS     X                ; OLine=1055
 1650 3420                             PSHS     Y                ; OLine=1056
 1652 108E0000                         LDY      #0               ; OLine=1057
                      FLOW_A_40_OUTPUT_BEGIN:                           
                                                                 ;   LBRA  
FLOW_A_40_1_INPUT
                                                                 ;  
FLOW_A_40_1_INPUT:
                                                                 ;  polarity 0
                                                                 ;   LBRA 
FLOW_A_40_OUTPUT_TRUE
                                                                 ;  
FLOW_A_40_OUTPUT_TRUE:
 1656 A680                             LDA      ,X+              ; OLine=1059
                                                                 ;  polarity 1
                                                                 ;   LBRA  
FLOW_A_41_1_INPUT
                                                                 ;  
FLOW_A_41_1_INPUT:
                                                                 ;  polarity 0
 1658 8100                             CMPA     #0               
 165A 1027000B                         LBEQ     FLOW_A_40_OUTPUT_END ; 
CLEAN-JumpToJump- FLOW_A_41_OUTPUT_TRUE
                                                                 ;   LBRA 
FLOW_A_41_OUTPUT_FALSE
                                                                 ;  
FLOW_A_41_OUTPUT_FALSE:
 165E 160003                           LBRA     FLOW_A_41_OUTPUT_END 
                                                                 ;  
FLOW_A_41_OUTPUT_TRUE:
 1661 160005                           LBRA     FLOW_A_40_OUTPUT_END ; 
OLine=1061 
                      FLOW_A_41_OUTPUT_END:                           
 1664 3121                             LEAY     1,Y              ; OLine=1063
 1666 16FFED                           LBRA     FLOW_A_40_OUTPUT_BEGIN 
*** warning 1: Long branch within short branch range could be optimized
                                                                 ;  
FLOW_A_40_OUTPUT_FALSE:
                      FLOW_A_40_OUTPUT_END:                           
 1669 1F20                             TFR      Y,D              ; OLine=1065
 166B 3520                             PULS     Y                ; OLine=1066
 166D 3510                             PULS     X                ; OLine=1067
 166F 39                               RTS                       ;  
--SubroutineContextEnds--
                                                                 
                                                                 ; 
</EditorTab>
                                                                 
                                                                 ; <EditorTab 
name="Messages">
                      MSG_STUMP:                                 ; OLine=1073
                                                                 ;  NTCA("YOU 
STUMPED ME! LET'S ADD YOUR\nANIMAL TO THE ZOO. WHAT WERE\nYOU THINKING OF?\n")
 1670 594F5520535455                   fcc      "YOU STUMPED ME! LET'S ADD 
YOUR" 
 1677 4D504544204D45
 167E 21204C45542753
 1685 2041444420594F
 168C 5552
 168E 0D                               fcb      13               
 168F 414E494D414C20                   fcc      "ANIMAL TO THE ZOO. WHAT WERE" 

 1696 544F2054484520
 169D 5A4F4F2E205748
 16A4 41542057455245
 16AB 0D                               fcb      13               
 16AC 594F5520544849                   fcc      "YOU THINKING OF?" 
 16B3 4E4B494E47204F
 16BA 463F
 16BC 0D                               fcb      13               
                                                                 
 16BD 00                               fcb      0                
                      MSG_YN:                                    ; OLine=1076
                                                                 ;  NTCA("YES 
OR NO (Y/N): "
 16BE 594553204F5220                   fcc      "YES OR NO (Y/N): " 
 16C5 4E4F2028592F4E
 16CC 293A20
 16CF 00                               fcb      0                
                                                                 
                      MSG_QUESTION_MARK:                           ; 
OLine=1079
                                                                 ;  
NTCA("?\n")
 16D0 3F                               fcc      "?"              
 16D1 0D                               fcb      13               
                                                                 
 16D2 00                               fcb      0                
                      MSG_ISIT:                                  ; OLine=1082
                                                                 ;  NTCA("IS 
IT A ")
 16D3 49532049542041                   fcc      "IS IT A "       
 16DA 20
 16DB 00                               fcb      0                
                                                                 
                      MSG_I_GOT_IT:                              ; OLine=1085
                                                                 ;  NTCA("\nI 
GOT IT!\n\n")
 16DC 0D                               fcb      13               
 16DD 4920474F542049                   fcc      "I GOT IT!"      
 16E4 5421
 16E6 0D                               fcb      13               
 16E7 0D                               fcb      13               
                                                                 
 16E8 00                               fcb      0                
                      MSG_WELCOME:                               ; OLine=1088
                                                                 ;  
NTCA("WELCOME TO THE COCO ZOO!\n\n")
 16E9 57454C434F4D45                   fcc      "WELCOME TO THE COCO ZOO!" 
 16F0 20544F20544845
 16F7 20434F434F205A
 16FE 4F4F21
 1701 0D                               fcb      13               
 1702 0D                               fcb      13               
                                                                 
 1703 00                               fcb      0                
                      MSG_INSTRUCTIONS:                           ; OLine=1091
                                                                 ;  
NTCA("THINK OF AN ANIMAL AND I WILL\nTRY TO GUESS IT.\n\n")
 1704 5448494E4B204F                   fcc      "THINK OF AN ANIMAL AND I 
WILL" 
 170B 4620414E20414E
 1712 494D414C20414E
 1719 4420492057494C
 1720 4C
 1721 0D                               fcb      13               
 1722 54525920544F20                   fcc      "TRY TO GUESS IT." 
 1729 47554553532049
 1730 542E
 1732 0D                               fcb      13               
 1733 0D                               fcb      13               
                                                                 
 1734 00                               fcb      0                
                      MSG_GIVE:                                  ; OLine=1094
                                                                 ;  
NTCA("ENTER A QUESTION THAT SEPARATES\nMY GUESS FROM YOUR ANIMAL\n")
 1735 454E5445522041                   fcc      "ENTER A QUESTION THAT 
SEPARATES" 
 173C 20515545535449
 1743 4F4E2054484154
 174A 20534550415241
 1751 544553
 1754 0D                               fcb      13               
 1755 4D592047554553                   fcc      "MY GUESS FROM YOUR ANIMAL" 
 175C 532046524F4D20
 1763 594F555220414E
 176A 494D414C
 176E 0D                               fcb      13               
                                                                 
 176F 00                               fcb      0                
                      MSG_FROM:                                  ; OLine=1097
                                                                 ;  NTCA(" 
FROM ")
 1770 2046524F4D20                     fcc      " FROM "         
 1776 00                               fcb      0                
                                                                 
                      MSG_WHAT:                                  ; OLine=1100
                                                                 ;  NTCA("WHAT 
WOULD THE ANSWER BE FOR\nYOUR ANIMAL (Y/N)? ")
 1777 5748415420574F                   fcc      "WHAT WOULD THE ANSWER BE FOR" 

 177E 554C4420544845
 1785 20414E53574552
 178C 20424520464F52
 1793 0D                               fcb      13               
 1794 594F555220414E                   fcc      "YOUR ANIMAL (Y/N)? " 
 179B 494D414C202859
 17A2 2F4E293F20
 17A7 00                               fcb      0                
                                                                 
                      MSG_OUT_OF_SPACE:                           ; OLine=1103
                                                                 ;  
NTCA("SORRY! NO MORE ROOM IN THE\nZOO FOR YOUR ANIMAL!\n")
 17A8 534F5252592120                   fcc      "SORRY! NO MORE ROOM IN THE" 
 17AF 4E4F204D4F5245
 17B6 20524F4F4D2049
 17BD 4E20544845
 17C2 0D                               fcb      13               
 17C3 5A4F4F20464F52                   fcc      "ZOO FOR YOUR ANIMAL!" 
 17CA 20594F55522041
 17D1 4E494D414C21
 17D7 0D                               fcb      13               
                                                                 ; 
</EditorTab>
 17D8 00                               fcb      0                
                                                                 
                                                                 ; <EditorTab 
name="Initial Zoo">
                                                                 ; 
=======================================================================
                                                                 ;  INITIAL 
ZOO
                                                                 ; 
=======================================================================
                                                                 
                      RAM_DRIVE_ROM:                             ; OLine=1112
 17D9 434F434F205A4F                   fcc      'COCO ZOO'       ; OLine=1113  
Preamble for disk-file
 17E0 4F
                      ZOO_NODE_1:                                ; OLine=1114
 17E1 0021                             fcw      ZOO_NODE_2-RAM_DRIVE_ROM ; 
OLine=1115
 17E3 0029                             fcw      ZOO_NODE_3-RAM_DRIVE_ROM ; 
OLine=1116
                                                                 ;  NTCA("DOES 
IT LIVE ON LAND")
 17E5 444F4553204954                   fcc      "DOES IT LIVE ON LAND" 
 17EC 204C495645204F
 17F3 4E204C414E44
 17F9 00                               fcb      0                
                      ZOO_NODE_2:                                ; OLine=1118
 17FA 0000                             fcw      0                ; OLine=1119
 17FC 0000                             fcw      0                ; OLine=1120
                                                                 ;  
NTCA("COW")
 17FE 434F57                           fcc      "COW"            
 1801 00                               fcb      0                
                      ZOO_NODE_3:                                ; OLine=1122
 1802 0000                             fcw      0                ; OLine=1123
 1804 0000                             fcw      0                ; OLine=1124
                                                                 ;  
NTCA("SHARK")   
 1806 534841524B                       fcc      "SHARK"          
 180B 00                               fcb      0                
                      ZOO_END:                                   ; OLine=1126
                                                                 ; 
</EditorTab>
                                                                 
                                       '                         ; OLine=1129
                                                                 

32 warning(s) in pass 2.

SYMBOL TABLE
 ADD_TO_ZOO 02 12F8 APPEND_NODE 02 1397 ASCIITRANS 02 15B7 CACHE_SECTOR 02 
1088
 CFLASH_FLUSH 02 1054 CFLASH_GET_SIZE 02 10BD CFLASH_READ_BYTES 02 10BA 
CFLASH_SEEK 02 10BC
 CFLASH_WRITE_BYTES 02 10BB CLEAR_SCREEN 02 1435 COPY_CURRENT_TO_LAST 02 140C 
FLOW_A_10_OUTPUT_BEGIN 02 11C0
 FLOW_A_11_OUTPUT_TRUE 02 1218 FLOW_A_12_OUTPUT_END 02 1264 
FLOW_A_12_OUTPUT_TRUE 02 125B FLOW_A_13_OUTPUT_TRUE 02 1252
 FLOW_A_14_OUTPUT_END 02 1213 FLOW_A_14_OUTPUT_TRUE 02 120D 
FLOW_A_15_OUTPUT_TRUE 02 1204 FLOW_A_16_OUTPUT_END 02 1334
 FLOW_A_16_OUTPUT_TRUE 02 1328 FLOW_A_17_OUTPUT_END 02 1351 
FLOW_A_17_OUTPUT_TRUE 02 1345 FLOW_A_18_OUTPUT_END 02 136C
 FLOW_A_18_OUTPUT_TRUE 02 1360 FLOW_A_19_OUTPUT_END 02 1380 
FLOW_A_19_OUTPUT_TRUE 02 137E FLOW_A_1_OUTPUT_BEGIN 02 101D
 FLOW_A_20_OUTPUT_END 02 13CC FLOW_A_20_OUTPUT_TRUE 02 13CA 
FLOW_A_21_OUTPUT_TRUE 02 13FB FLOW_A_22_OUTPUT_TRUE 02 141E
 FLOW_A_23_OUTPUT_BEGIN 02 143D FLOW_A_23_OUTPUT_FALSE 02 1449 
FLOW_A_24_OUTPUT_BEGIN 02 145A FLOW_A_24_OUTPUT_END 02 146E
 FLOW_A_25_OUTPUT_END 02 1468 FLOW_A_26_OUTPUT_END 02 14A3 FLOW_A_26_OUTPUT_TRUE
 02 14A0 FLOW_A_27_OUTPUT_END 02 149A
 FLOW_A_27_OUTPUT_TRUE 02 1494 FLOW_A_28_OUTPUT_TRUE 02 14B9 
FLOW_A_29_OUTPUT_END 02 14D9 FLOW_A_29_OUTPUT_TRUE 02 14D7
 FLOW_A_30_OUTPUT_TRUE 02 150F FLOW_A_31_OUTPUT_TRUE 02 151D 
FLOW_A_32_OUTPUT_BEGIN 02 1545 FLOW_A_33_OUTPUT_END 02 1557
 FLOW_A_34_OUTPUT_END 02 1574 FLOW_A_34_OUTPUT_TRUE 02 1560 
FLOW_A_35_OUTPUT_END 02 1591 FLOW_A_35_OUTPUT_TRUE 02 157D
 FLOW_A_36_OUTPUT_TRUE 02 1586 FLOW_A_37_OUTPUT_END 02 159D 
FLOW_A_38_OUTPUT_TRUE 02 15AE FLOW_A_39_OUTPUT_TRUE 02 163D
 FLOW_A_3_OUTPUT_TRUE 02 10D3 FLOW_A_40_OUTPUT_BEGIN 02 1656 
FLOW_A_40_OUTPUT_END 02 1669 FLOW_A_41_OUTPUT_END 02 1664
 FLOW_A_4_OUTPUT_END 02 1129 FLOW_A_4_OUTPUT_TRUE 02 1127 FLOW_A_5_OUTPUT_TRUE 
02 1134 FLOW_A_6_OUTPUT_END 02 1181
 FLOW_A_6_OUTPUT_TRUE 02 1165 FLOW_A_7_OUTPUT_END 02 1175 FLOW_A_8_OUTPUT_END 
02 1195 FLOW_A_8_OUTPUT_TRUE 02 1193
 FLOW_A_9_OUTPUT_END 02 11AA FLOW_A_9_OUTPUT_TRUE 02 11A7 GET_SCREEN_CURSOR 02 
1451 INIT_CFLASH_FILE 02 1026
 INIT_RAM_FILE 02 10C1 INPUT_BUFFER 02 262E INPUT_STRING 02 152B LINE_FEED 02 
14AA
 LOAD_ZOO_NODE 02 13DE  MSG_FROM 02 1770  MSG_GIVE 02 1735 MSG_INSTRUCTIONS 02 
1704
  MSG_ISIT 02 16D3 MSG_I_GOT_IT 02 16DC MSG_OUT_OF_SPACE 02 17A8 
MSG_QUESTION_MARK 02 16D0
 MSG_STUMP 02 1670 MSG_WELCOME 02 16E9  MSG_WHAT 02 1777    MSG_YN 02 16BE
 NODE_BUF_CURRENT 02 2106 NODE_BUF_LAST 02 2000 NODE_BUF_NEW_1 02 220C 
NODE_BUF_NEW_2 02 2312
 OUT_OF_DISK_SPACE 02 13D3  PLAY_ZOO 02 11B2 PRINT_CHARACTER 02 1473 
PRINT_HEX_DIGIT 02 14C8
 PRINT_HEX_WORD 02 14DF PRINT_MESSAGE 02 1456 RAM_DRIVE 02 3000 RAM_DRIVE_ROM 
02 17D9
 RAM_FLUSH 02 119C RAM_GET_SIZE 02 11AE RAM_READ_BYTES 02 110D  RAM_SEEK 02 
119D
 RAM_WRITE_BYTES 02 1151 ROM_OS_READ_SECTOR 00 C2F8 ROM_OS_WRITE_SECTOR 00 
C322 SCREEN_CURSOR 02 263E
    SCROLL 02 1508 SET_SCREEN_CURSOR 02 144C    STRCPY 02 1637    STRLEN 02 
164E
    TEMP_A 02 2640   ZOO_END 02 180C ZOO_GATHER_INFO 02 1269    ZOO_IO 02 2418
 ZOO_NODE_1 02 17E1 ZOO_NODE_2 02 17FA ZOO_NODE_3 02 1802
119 SYMBOLS

0 error(s), 64 warning(s)
